; Function Attrs: mustprogress nofree norecurse nosync nounwind willreturn memory(read, argmem: readwrite, inaccessiblemem: none) uwtable
define i64 @H5HF__hdr_fuse_decr(ptr noundef captures(none) %0) local_unnamed_addr #4 {
  %2 = load i8, ptr @H5HF_init_g, align 1, !tbaa !3, !range !7, !noundef !8
  %3 = trunc nuw i8 %2 to i1
  %4 = load i8, ptr @H5_libterm_g, align 1, !range !7
  %5 = trunc nuw i8 %4 to i1
  %6 = xor i1 %5, true
  %7 = select i1 %3, i1 true, i1 %6
  %8 = getelementptr inbounds nuw i8, ptr %0, i64 608
  %9 = load i64, ptr %8, align 8, !tbaa !71
  br i1 %7, label %10, label %._crit_edge, !prof !9

10:                                               ; preds = %1
  %11 = add i64 %9, -1
  store i64 %11, ptr %8, align 8, !tbaa !71
  br label %._crit_edge

._crit_edge:                                      ; preds = %1, %10
  %12 = phi i64 [ %11, %10 ], [ %9, %1 ]
  ret i64 %12
}